; Function Attrs: uwtable
define void @_ZThn16_N3zmq20stream_engine_base_t9terminateEv(ptr noundef %this) unnamed_addr #9 align 2 {
entry:
  %0 = getelementptr inbounds i8, ptr %this, i64 -16
  tail call void @_ZN3zmq20stream_engine_base_t6unplugEv(ptr noundef nonnull align 8 dereferenceable(1689) %0)
  %vtable.i = load ptr, ptr %0, align 8
  %vfn.i = getelementptr inbounds i8, ptr %vtable.i, i64 8
  %1 = load ptr, ptr %vfn.i, align 8
  tail call void %1(ptr noundef nonnull align 8 dereferenceable(1689) %0) #19
  ret void
}